; Function Attrs: mustprogress uwtable
define noundef i32 @_Z10tMPI_IsendPKviP14tmpi_datatype_iiP10tmpi_comm_PP9tmpi_req_(ptr noundef %0, i32 noundef %1, ptr noundef %2, i32 noundef %3, i32 noundef %4, ptr noundef %5, ptr nocapture noundef writeonly %6) local_unnamed_addr #0 {
  %8 = tail call noundef ptr @_Z23tMPI_Thread_getspecific17tMPI_Thread_key_t(ptr noundef nonnull byval(%struct.tMPI_Thread_key_t) align 8 @id_key)
  %9 = getelementptr inbounds i8, ptr %8, i64 360
  %10 = tail call noundef ptr @_Z12tMPI_Get_reqP8req_list(ptr noundef nonnull %9)
  %.not = icmp eq ptr %5, null
  br i1 %.not, label %11, label %14

11:                                               ; preds = %7
  tail call void @_Z15tMPI_Return_reqP8req_listP9tmpi_req_(ptr noundef nonnull %9, ptr noundef %10)
  %12 = load ptr, ptr @TMPI_COMM_WORLD, align 8
  %13 = tail call noundef i32 @_Z10tMPI_ErrorP10tmpi_comm_i(ptr noundef %12, i32 noundef 6)
  br label %28

14:                                               ; preds = %7
  %15 = getelementptr inbounds i8, ptr %5, i64 8
  %16 = load ptr, ptr %15, align 8
  %17 = sext i32 %3 to i64
  %18 = getelementptr inbounds ptr, ptr %16, i64 %17
  %19 = load ptr, ptr %18, align 8
  %.not27 = icmp eq ptr %19, null
  br i1 %.not27, label %20, label %22

20:                                               ; preds = %14
  tail call void @_Z15tMPI_Return_reqP8req_listP9tmpi_req_(ptr noundef nonnull %9, ptr noundef %10)
  %21 = tail call noundef i32 @_Z10tMPI_ErrorP10tmpi_comm_i(ptr noundef nonnull %5, i32 noundef 15)
  br label %28

22:                                               ; preds = %14
  %23 = tail call noundef ptr @_Z14tMPI_Post_sendP11tmpi_threadP10tmpi_comm_S0_PviP14tmpi_datatype_ii(ptr noundef %8, ptr noundef nonnull %5, ptr noundef nonnull %19, ptr noundef %0, i32 noundef %1, ptr noundef %2, i32 noundef %4, i32 noundef 1)
  %24 = icmp eq ptr %23, null
  br i1 %24, label %28, label %25

25:                                               ; preds = %22
  tail call void @_Z13tMPI_Req_initP9tmpi_req_P8envelope(ptr noundef %10, ptr noundef nonnull %23)
  store ptr %10, ptr %6, align 8
  %26 = getelementptr inbounds i8, ptr %23, i64 124
  %27 = load i32, ptr %26, align 4
  br label %28

28:                                               ; preds = %22, %25, %20, %11
  %.0 = phi i32 [ %27, %25 ], [ %21, %20 ], [ %13, %11 ], [ 20, %22 ]
  ret i32 %.0
}